target datalayout = "e-m:e-p270:32:32-p271:32:32-p272:64:64-i64:64-i128:128-f80:128-n8:16:32:64-S128"
target triple = "x86_64-pc-linux-gnu"

%struct.PLpgSQL_execstate = type { ptr, ptr, ptr, i64, i8, i32, i32, i8, i8, i8, i8, ptr, ptr, ptr, ptr, ptr, ptr, ptr, i32, i32, ptr, ptr, ptr, ptr, ptr, ptr, ptr, ptr, ptr, ptr, i64, ptr, ptr, ptr, ptr, ptr }
%struct.PLpgSQL_datum = type { i32, i32 }
%struct.PLpgSQL_var = type { i32, i32, ptr, i32, i8, i8, ptr, ptr, ptr, i32, i32, i64, i8, i8, i32 }
%struct.PLpgSQL_type = type { ptr, i32, i32, i16, i8, i8, i32, i8, i32, ptr, ptr, i64 }
%struct.ParamListInfoData = type { ptr, ptr, ptr, ptr, ptr, ptr, ptr, i32, [0 x %struct.ParamExternData] }
%struct.ParamExternData = type { i64, i8, i16, i32 }
%struct.PLpgSQL_rec = type { i32, i32, ptr, i32, i8, i8, ptr, ptr, i32, i32, ptr }
%struct.ExpandedRecordHeader = type { %struct.ExpandedObjectHeader, i32, i32, i32, i32, i32, ptr, i64, ptr, ptr, i32, i64, i64, i32, i8, ptr, ptr, ptr, ptr, ptr, ptr, %struct.MemoryContextCallback }
%struct.ExpandedObjectHeader = type { i32, ptr, ptr, [10 x i8], [10 x i8] }
%struct.MemoryContextCallback = type { ptr, ptr, ptr }
%struct.PLpgSQL_recfield = type { i32, i32, ptr, i32, i32, i64, %struct.ExpandedRecordFieldInfo }
%struct.ExpandedRecordFieldInfo = type { i32, i32, i32, i32 }
%struct.PLpgSQL_expr = type { ptr, i32, ptr, ptr, i32, i8, ptr, ptr, ptr, i32, i32, i8, i32, ptr, ptr, ptr, i32, ptr, i8, i32 }

; Function Attrs: nounwind uwtable
define internal ptr @plpgsql_param_fetch(ptr noundef %0, i32 noundef %1, i1 noundef zeroext %2, ptr noundef %3) #0 {
  %5 = alloca ptr, align 8
  %6 = alloca ptr, align 8
  %7 = alloca i32, align 4
  %8 = alloca i8, align 1
  %9 = alloca ptr, align 8
  %10 = alloca i32, align 4
  %11 = alloca ptr, align 8
  %12 = alloca ptr, align 8
  %13 = alloca ptr, align 8
  %14 = alloca i8, align 1
  %15 = alloca i32, align 4
  %16 = alloca ptr, align 8
  %17 = alloca ptr, align 8
  %18 = alloca i32, align 4
  store ptr %0, ptr %6, align 8
  store i32 %1, ptr %7, align 4
  %19 = zext i1 %2 to i8
  store i8 %19, ptr %8, align 1
  store ptr %3, ptr %9, align 8
  call void @llvm.lifetime.start.p0(i64 4, ptr %10) #12
  call void @llvm.lifetime.start.p0(i64 8, ptr %11) #12
  call void @llvm.lifetime.start.p0(i64 8, ptr %12) #12
  call void @llvm.lifetime.start.p0(i64 8, ptr %13) #12
  call void @llvm.lifetime.start.p0(i64 1, ptr %14) #12
  store i8 1, ptr %14, align 1
  call void @llvm.lifetime.start.p0(i64 4, ptr %15) #12
  %20 = load i32, ptr %7, align 4
  %21 = sub i32 %20, 1
  store i32 %21, ptr %10, align 4
  %22 = load ptr, ptr %6, align 8
  %23 = getelementptr inbounds nuw %struct.ParamListInfoData, ptr %22, i32 0, i32 1
  %24 = load ptr, ptr %23, align 8
  store ptr %24, ptr %11, align 8
  %25 = load ptr, ptr %6, align 8
  %26 = getelementptr inbounds nuw %struct.ParamListInfoData, ptr %25, i32 0, i32 5
  %27 = load ptr, ptr %26, align 8
  store ptr %27, ptr %12, align 8
  %28 = load ptr, ptr %11, align 8
  %29 = getelementptr inbounds nuw %struct.PLpgSQL_execstate, ptr %28, i32 0, i32 20
  %30 = load ptr, ptr %29, align 8
  %31 = load i32, ptr %10, align 4
  %32 = sext i32 %31 to i64
  %33 = getelementptr inbounds ptr, ptr %30, i64 %32
  %34 = load ptr, ptr %33, align 8
  store ptr %34, ptr %13, align 8
  %35 = load i32, ptr %10, align 4
  %36 = load ptr, ptr %12, align 8
  %37 = getelementptr inbounds nuw %struct.PLpgSQL_expr, ptr %36, i32 0, i32 7
  %38 = load ptr, ptr %37, align 8
  %39 = call zeroext i1 @bms_is_member(i32 noundef %35, ptr noundef %38)
  br i1 %39, label %41, label %40

40:                                               ; preds = %4
  store i8 0, ptr %14, align 1
  br label %106

41:                                               ; preds = %4
  %42 = load i8, ptr %8, align 1, !range !3, !noundef !4
  %43 = trunc i8 %42 to i1
  br i1 %43, label %44, label %105

44:                                               ; preds = %41
  %45 = load ptr, ptr %13, align 8
  %46 = getelementptr inbounds nuw %struct.PLpgSQL_datum, ptr %45, i32 0, i32 0
  %47 = load i32, ptr %46, align 4
  switch i32 %47, label %103 [
    i32 0, label %48
    i32 4, label %48
    i32 1, label %104
    i32 2, label %104
    i32 3, label %49
  ]

48:                                               ; preds = %44, %44
  br label %104

49:                                               ; preds = %44
  call void @llvm.lifetime.start.p0(i64 8, ptr %16) #12
  %50 = load ptr, ptr %13, align 8
  store ptr %50, ptr %16, align 8
  call void @llvm.lifetime.start.p0(i64 8, ptr %17) #12
  %51 = load ptr, ptr %11, align 8
  %52 = getelementptr inbounds nuw %struct.PLpgSQL_execstate, ptr %51, i32 0, i32 20
  %53 = load ptr, ptr %52, align 8
  %54 = load ptr, ptr %16, align 8
  %55 = getelementptr inbounds nuw %struct.PLpgSQL_recfield, ptr %54, i32 0, i32 3
  %56 = load i32, ptr %55, align 8
  %57 = sext i32 %56 to i64
  %58 = getelementptr inbounds ptr, ptr %53, i64 %57
  %59 = load ptr, ptr %58, align 8
  store ptr %59, ptr %17, align 8
  %60 = load ptr, ptr %17, align 8
  %61 = getelementptr inbounds nuw %struct.PLpgSQL_rec, ptr %60, i32 0, i32 10
  %62 = load ptr, ptr %61, align 8
  %63 = icmp eq ptr %62, null
  br i1 %63, label %64, label %65

64:                                               ; preds = %49
  store i8 0, ptr %14, align 1
  br label %102

65:                                               ; preds = %49
  %66 = load ptr, ptr %16, align 8
  %67 = getelementptr inbounds nuw %struct.PLpgSQL_recfield, ptr %66, i32 0, i32 5
  %68 = load i64, ptr %67, align 8
  %69 = load ptr, ptr %17, align 8
  %70 = getelementptr inbounds nuw %struct.PLpgSQL_rec, ptr %69, i32 0, i32 10
  %71 = load ptr, ptr %70, align 8
  %72 = getelementptr inbounds nuw %struct.ExpandedRecordHeader, ptr %71, i32 0, i32 7
  %73 = load i64, ptr %72, align 8
  %74 = icmp ne i64 %68, %73
  %75 = zext i1 %74 to i32
  %76 = icmp ne i32 %75, 0
  %77 = zext i1 %76 to i32
  %78 = sext i32 %77 to i64
  %79 = call i64 @llvm.expect.i64(i64 %78, i64 0)
  %80 = icmp ne i64 %79, 0
  br i1 %80, label %81, label %101

81:                                               ; preds = %65
  %82 = load ptr, ptr %17, align 8
  %83 = getelementptr inbounds nuw %struct.PLpgSQL_rec, ptr %82, i32 0, i32 10
  %84 = load ptr, ptr %83, align 8
  %85 = load ptr, ptr %16, align 8
  %86 = getelementptr inbounds nuw %struct.PLpgSQL_recfield, ptr %85, i32 0, i32 2
  %87 = load ptr, ptr %86, align 8
  %88 = load ptr, ptr %16, align 8
  %89 = getelementptr inbounds nuw %struct.PLpgSQL_recfield, ptr %88, i32 0, i32 6
  %90 = call zeroext i1 @expanded_record_lookup_field(ptr noundef %84, ptr noundef %87, ptr noundef %89)
  br i1 %90, label %91, label %99

91:                                               ; preds = %81
  %92 = load ptr, ptr %17, align 8
  %93 = getelementptr inbounds nuw %struct.PLpgSQL_rec, ptr %92, i32 0, i32 10
  %94 = load ptr, ptr %93, align 8
  %95 = getelementptr inbounds nuw %struct.ExpandedRecordHeader, ptr %94, i32 0, i32 7
  %96 = load i64, ptr %95, align 8
  %97 = load ptr, ptr %16, align 8
  %98 = getelementptr inbounds nuw %struct.PLpgSQL_recfield, ptr %97, i32 0, i32 5
  store i64 %96, ptr %98, align 8
  br label %100

99:                                               ; preds = %81
  store i8 0, ptr %14, align 1
  br label %100

100:                                              ; preds = %99, %91
  br label %101

101:                                              ; preds = %100, %65
  br label %102

102:                                              ; preds = %101, %64
  call void @llvm.lifetime.end.p0(i64 8, ptr %17) #12
  call void @llvm.lifetime.end.p0(i64 8, ptr %16) #12
  br label %104

103:                                              ; preds = %44
  store i8 0, ptr %14, align 1
  br label %104

104:                                              ; preds = %103, %102, %44, %44, %48
  br label %105

105:                                              ; preds = %104, %41
  br label %106

106:                                              ; preds = %105, %40
  %107 = load i8, ptr %14, align 1, !range !3, !noundef !4
  %108 = trunc i8 %107 to i1
  br i1 %108, label %119, label %109

109:                                              ; preds = %106
  %110 = load ptr, ptr %9, align 8
  %111 = getelementptr inbounds nuw %struct.ParamExternData, ptr %110, i32 0, i32 0
  store i64 0, ptr %111, align 8
  %112 = load ptr, ptr %9, align 8
  %113 = getelementptr inbounds nuw %struct.ParamExternData, ptr %112, i32 0, i32 1
  store i8 1, ptr %113, align 8
  %114 = load ptr, ptr %9, align 8
  %115 = getelementptr inbounds nuw %struct.ParamExternData, ptr %114, i32 0, i32 2
  store i16 0, ptr %115, align 2
  %116 = load ptr, ptr %9, align 8
  %117 = getelementptr inbounds nuw %struct.ParamExternData, ptr %116, i32 0, i32 3
  store i32 0, ptr %117, align 4
  %118 = load ptr, ptr %9, align 8
  store ptr %118, ptr %5, align 8
  store i32 1, ptr %18, align 4
  br label %186

119:                                              ; preds = %106
  %120 = load ptr, ptr %11, align 8
  %121 = load ptr, ptr %13, align 8
  %122 = load ptr, ptr %9, align 8
  %123 = getelementptr inbounds nuw %struct.ParamExternData, ptr %122, i32 0, i32 3
  %124 = load ptr, ptr %9, align 8
  %125 = getelementptr inbounds nuw %struct.ParamExternData, ptr %124, i32 0, i32 0
  %126 = load ptr, ptr %9, align 8
  %127 = getelementptr inbounds nuw %struct.ParamExternData, ptr %126, i32 0, i32 1
  call void @exec_eval_datum(ptr noundef %120, ptr noundef %121, ptr noundef %123, ptr noundef %15, ptr noundef %125, ptr noundef %127)
  %128 = load ptr, ptr %9, align 8
  %129 = getelementptr inbounds nuw %struct.ParamExternData, ptr %128, i32 0, i32 2
  store i16 1, ptr %129, align 2
  %130 = load ptr, ptr %13, align 8
  %131 = getelementptr inbounds nuw %struct.PLpgSQL_datum, ptr %130, i32 0, i32 0
  %132 = load i32, ptr %131, align 4
  %133 = icmp eq i32 %132, 0
  br i1 %133, label %134, label %160

134:                                              ; preds = %119
  %135 = load ptr, ptr %9, align 8
  %136 = getelementptr inbounds nuw %struct.ParamExternData, ptr %135, i32 0, i32 1
  %137 = load i8, ptr %136, align 8, !range !3, !noundef !4
  %138 = trunc i8 %137 to i1
  br i1 %138, label %147, label %139

139:                                              ; preds = %134
  %140 = load ptr, ptr %13, align 8
  %141 = getelementptr inbounds nuw %struct.PLpgSQL_var, ptr %140, i32 0, i32 7
  %142 = load ptr, ptr %141, align 8
  %143 = getelementptr inbounds nuw %struct.PLpgSQL_type, ptr %142, i32 0, i32 3
  %144 = load i16, ptr %143, align 8
  %145 = sext i16 %144 to i32
  %146 = icmp ne i32 %145, -1
  br i1 %146, label %147, label %151

147:                                              ; preds = %139, %134
  %148 = load ptr, ptr %9, align 8
  %149 = getelementptr inbounds nuw %struct.ParamExternData, ptr %148, i32 0, i32 0
  %150 = load i64, ptr %149, align 8
  br label %156

151:                                              ; preds = %139
  %152 = load ptr, ptr %9, align 8
  %153 = getelementptr inbounds nuw %struct.ParamExternData, ptr %152, i32 0, i32 0
  %154 = load i64, ptr %153, align 8
  %155 = call i64 @MakeExpandedObjectReadOnlyInternal(i64 noundef %154)
  br label %156

156:                                              ; preds = %151, %147
  %157 = phi i64 [ %150, %147 ], [ %155, %151 ]
  %158 = load ptr, ptr %9, align 8
  %159 = getelementptr inbounds nuw %struct.ParamExternData, ptr %158, i32 0, i32 0
  store i64 %157, ptr %159, align 8
  br label %184

160:                                              ; preds = %119
  %161 = load ptr, ptr %13, align 8
  %162 = getelementptr inbounds nuw %struct.PLpgSQL_datum, ptr %161, i32 0, i32 0
  %163 = load i32, ptr %162, align 4
  %164 = icmp eq i32 %163, 2
  br i1 %164, label %165, label %183

165:                                              ; preds = %160
  %166 = load ptr, ptr %9, align 8
  %167 = getelementptr inbounds nuw %struct.ParamExternData, ptr %166, i32 0, i32 1
  %168 = load i8, ptr %167, align 8, !range !3, !noundef !4
  %169 = trunc i8 %168 to i1
  br i1 %169, label %170, label %174

170:                                              ; preds = %165
  %171 = load ptr, ptr %9, align 8
  %172 = getelementptr inbounds nuw %struct.ParamExternData, ptr %171, i32 0, i32 0
  %173 = load i64, ptr %172, align 8
  br label %179

174:                                              ; preds = %165
  %175 = load ptr, ptr %9, align 8
  %176 = getelementptr inbounds nuw %struct.ParamExternData, ptr %175, i32 0, i32 0
  %177 = load i64, ptr %176, align 8
  %178 = call i64 @MakeExpandedObjectReadOnlyInternal(i64 noundef %177)
  br label %179

179:                                              ; preds = %174, %170
  %180 = phi i64 [ %173, %170 ], [ %178, %174 ]
  %181 = load ptr, ptr %9, align 8
  %182 = getelementptr inbounds nuw %struct.ParamExternData, ptr %181, i32 0, i32 0
  store i64 %180, ptr %182, align 8
  br label %183

183:                                              ; preds = %179, %160
  br label %184

184:                                              ; preds = %183, %156
  %185 = load ptr, ptr %9, align 8
  store ptr %185, ptr %5, align 8
  store i32 1, ptr %18, align 4
  br label %186

186:                                              ; preds = %184, %109
  call void @llvm.lifetime.end.p0(i64 4, ptr %15) #12
  call void @llvm.lifetime.end.p0(i64 1, ptr %14) #12
  call void @llvm.lifetime.end.p0(i64 8, ptr %13) #12
  call void @llvm.lifetime.end.p0(i64 8, ptr %12) #12
  call void @llvm.lifetime.end.p0(i64 8, ptr %11) #12
  call void @llvm.lifetime.end.p0(i64 4, ptr %10) #12
  %187 = load ptr, ptr %5, align 8
  ret ptr %187
}