; Function Attrs: nounwind uwtable
define internal noundef ptr @plpgsql_param_fetch(ptr noundef readonly captures(none) %0, i32 noundef %1, i1 noundef zeroext %2, ptr noundef returned %3) #0 {
  %5 = alloca i32, align 4
  call void @llvm.lifetime.start.p0(i64 4, ptr nonnull %5) #12
  %6 = add i32 %1, -1
  %7 = getelementptr inbounds nuw i8, ptr %0, i64 8
  %8 = load ptr, ptr %7, align 8
  %9 = getelementptr inbounds nuw i8, ptr %0, i64 40
  %10 = load ptr, ptr %9, align 8
  %11 = getelementptr inbounds nuw i8, ptr %8, i64 112
  %12 = load ptr, ptr %11, align 8
  %13 = sext i32 %6 to i64
  %14 = getelementptr inbounds ptr, ptr %12, i64 %13
  %15 = load ptr, ptr %14, align 8
  %16 = getelementptr inbounds nuw i8, ptr %10, i64 48
  %17 = load ptr, ptr %16, align 8
  %18 = tail call zeroext i1 @bms_is_member(i32 noundef %6, ptr noundef %17) #12
  %brmerge.not = and i1 %2, %18
  br i1 %brmerge.not, label %19, label %45

19:                                               ; preds = %4
  %20 = load i32, ptr %15, align 4
  switch i32 %20, label %.critedge [
    i32 0, label %.critedge50
    i32 4, label %.critedge50
    i32 1, label %.critedge50
    i32 2, label %.critedge50
    i32 3, label %21
  ]

21:                                               ; preds = %19
  %22 = load ptr, ptr %11, align 8
  %23 = getelementptr inbounds nuw i8, ptr %15, i64 16
  %24 = load i32, ptr %23, align 8
  %25 = sext i32 %24 to i64
  %26 = getelementptr inbounds ptr, ptr %22, i64 %25
  %27 = load ptr, ptr %26, align 8
  %28 = getelementptr inbounds nuw i8, ptr %27, i64 48
  %29 = load ptr, ptr %28, align 8
  %30 = icmp eq ptr %29, null
  br i1 %30, label %.critedge, label %31

31:                                               ; preds = %21
  %32 = getelementptr inbounds nuw i8, ptr %15, i64 24
  %33 = load i64, ptr %32, align 8
  %34 = getelementptr inbounds nuw i8, ptr %29, i64 80
  %35 = load i64, ptr %34, align 8
  %.not = icmp eq i64 %33, %35
  br i1 %.not, label %.critedge50, label %36, !prof !7

36:                                               ; preds = %31
  %37 = getelementptr inbounds nuw i8, ptr %15, i64 8
  %38 = load ptr, ptr %37, align 8
  %39 = getelementptr inbounds nuw i8, ptr %15, i64 32
  %40 = tail call zeroext i1 @expanded_record_lookup_field(ptr noundef nonnull %29, ptr noundef %38, ptr noundef nonnull %39) #12
  br i1 %40, label %41, label %.critedge

41:                                               ; preds = %36
  %42 = load ptr, ptr %28, align 8
  %43 = getelementptr inbounds nuw i8, ptr %42, i64 80
  %44 = load i64, ptr %43, align 8
  store i64 %44, ptr %32, align 8
  br label %.critedge50

45:                                               ; preds = %4
  br i1 %18, label %.critedge50, label %.critedge

.critedge:                                        ; preds = %21, %36, %19, %45
  store i64 0, ptr %3, align 8
  %46 = getelementptr inbounds nuw i8, ptr %3, i64 8
  store i8 1, ptr %46, align 8
  %47 = getelementptr inbounds nuw i8, ptr %3, i64 10
  store i16 0, ptr %47, align 2
  %48 = getelementptr inbounds nuw i8, ptr %3, i64 12
  store i32 0, ptr %48, align 4
  br label %76

.critedge50:                                      ; preds = %19, %19, %19, %19, %41, %31, %45
  %49 = getelementptr inbounds nuw i8, ptr %3, i64 12
  %50 = getelementptr inbounds nuw i8, ptr %3, i64 8
  call void @exec_eval_datum(ptr noundef nonnull %8, ptr noundef %15, ptr noundef nonnull %49, ptr noundef nonnull %5, ptr noundef %3, ptr noundef nonnull %50)
  %51 = getelementptr inbounds nuw i8, ptr %3, i64 10
  store i16 1, ptr %51, align 2
  %52 = load i32, ptr %15, align 4
  switch i32 %52, label %76 [
    i32 0, label %53
    i32 2, label %68
  ]

53:                                               ; preds = %.critedge50
  %54 = load i8, ptr %50, align 8, !range !3, !noundef !4
  %55 = trunc nuw i8 %54 to i1
  br i1 %55, label %61, label %56

56:                                               ; preds = %53
  %57 = getelementptr inbounds nuw i8, ptr %15, i64 32
  %58 = load ptr, ptr %57, align 8
  %59 = getelementptr inbounds nuw i8, ptr %58, i64 16
  %60 = load i16, ptr %59, align 8
  %.not46 = icmp eq i16 %60, -1
  br i1 %.not46, label %63, label %61

61:                                               ; preds = %56, %53
  %62 = load i64, ptr %3, align 8
  br label %66

63:                                               ; preds = %56
  %64 = load i64, ptr %3, align 8
  %65 = tail call i64 @MakeExpandedObjectReadOnlyInternal(i64 noundef %64) #12
  br label %66

66:                                               ; preds = %63, %61
  %67 = phi i64 [ %62, %61 ], [ %65, %63 ]
  store i64 %67, ptr %3, align 8
  br label %76

68:                                               ; preds = %.critedge50
  %69 = load i8, ptr %50, align 8, !range !3, !noundef !4
  %70 = trunc nuw i8 %69 to i1
  %71 = load i64, ptr %3, align 8
  br i1 %70, label %74, label %72

72:                                               ; preds = %68
  %73 = tail call i64 @MakeExpandedObjectReadOnlyInternal(i64 noundef %71) #12
  br label %74

74:                                               ; preds = %68, %72
  %75 = phi i64 [ %73, %72 ], [ %71, %68 ]
  store i64 %75, ptr %3, align 8
  br label %76

76:                                               ; preds = %66, %74, %.critedge50, %.critedge
  call void @llvm.lifetime.end.p0(i64 4, ptr nonnull %5) #12
  ret ptr %3
}